target datalayout = "e-m:e-p270:32:32-p271:32:32-p272:64:64-i64:64-i128:128-f80:128-n8:16:32:64-S128"
target triple = "x86_64-pc-linux-gnu"

%struct.lean_array_object = type { %struct.lean_object, i64, i64, [0 x ptr] }
%struct.lean_object = type { i32, i32 }

; Function Attrs: inlinehint nounwind uwtable
define internal ptr @lean_to_array(ptr noundef %0) #0 {
  %2 = alloca ptr, align 8
  store ptr %0, ptr %2, align 8, !tbaa !4
  %3 = load ptr, ptr %2, align 8, !tbaa !4
  ret ptr %3
}

; Function Attrs: alwaysinline nounwind uwtable
define internal void @lean_dec_ref(ptr noundef %0) #1 {
  %2 = alloca ptr, align 8
  store ptr %0, ptr %2, align 8, !tbaa !4
  %3 = load ptr, ptr %2, align 8, !tbaa !4
  %4 = getelementptr inbounds nuw %struct.lean_object, ptr %3, i32 0, i32 0
  %5 = load i32, ptr %4, align 4, !tbaa !15
  %6 = icmp sgt i32 %5, 1
  %7 = zext i1 %6 to i32
  %8 = sext i32 %7 to i64
  %9 = call i64 @llvm.expect.i64(i64 %8, i64 1)
  %10 = icmp ne i64 %9, 0
  br i1 %10, label %11, label %16

11:                                               ; preds = %1
  %12 = load ptr, ptr %2, align 8, !tbaa !4
  %13 = getelementptr inbounds nuw %struct.lean_object, ptr %12, i32 0, i32 0
  %14 = load i32, ptr %13, align 4, !tbaa !15
  %15 = add i32 %14, -1
  store i32 %15, ptr %13, align 4, !tbaa !15
  br label %24

16:                                               ; preds = %1
  %17 = load ptr, ptr %2, align 8, !tbaa !4
  %18 = getelementptr inbounds nuw %struct.lean_object, ptr %17, i32 0, i32 0
  %19 = load i32, ptr %18, align 4, !tbaa !15
  %20 = icmp ne i32 %19, 0
  br i1 %20, label %21, label %23

21:                                               ; preds = %16
  %22 = load ptr, ptr %2, align 8, !tbaa !4
  call void @lean_dec_ref_cold(ptr noundef %22)
  br label %23

23:                                               ; preds = %21, %16
  br label %24

24:                                               ; preds = %23, %11
  ret void
}

; Function Attrs: inlinehint nounwind uwtable
define internal i64 @lean_unbox(ptr noundef %0) #0 {
  %2 = alloca ptr, align 8
  store ptr %0, ptr %2, align 8, !tbaa !4
  %3 = load ptr, ptr %2, align 8, !tbaa !4
  %4 = ptrtoint ptr %3 to i64
  %5 = lshr i64 %4, 1
  ret i64 %5
}

; Function Attrs: alwaysinline nounwind uwtable
define internal zeroext i1 @lean_is_scalar(ptr noundef %0) #1 {
  %2 = alloca ptr, align 8
  store ptr %0, ptr %2, align 8, !tbaa !4
  %3 = load ptr, ptr %2, align 8, !tbaa !4
  %4 = ptrtoint ptr %3 to i64
  %5 = and i64 %4, 1
  %6 = icmp eq i64 %5, 1
  ret i1 %6
}

; Function Attrs: inlinehint nounwind uwtable
define internal ptr @lean_usize_to_nat(i64 noundef %0) #0 {
  %2 = alloca ptr, align 8
  %3 = alloca i64, align 8
  store i64 %0, ptr %3, align 8, !tbaa !8
  %4 = load i64, ptr %3, align 8, !tbaa !8
  %5 = icmp ule i64 %4, 9223372036854775807
  %6 = zext i1 %5 to i32
  %7 = sext i32 %6 to i64
  %8 = call i64 @llvm.expect.i64(i64 %7, i64 1)
  %9 = icmp ne i64 %8, 0
  br i1 %9, label %10, label %13

10:                                               ; preds = %1
  %11 = load i64, ptr %3, align 8, !tbaa !8
  %12 = call ptr @lean_box(i64 noundef %11)
  store ptr %12, ptr %2, align 8
  br label %16

13:                                               ; preds = %1
  %14 = load i64, ptr %3, align 8, !tbaa !8
  %15 = call ptr @lean_big_usize_to_nat(i64 noundef %14)
  store ptr %15, ptr %2, align 8
  br label %16

16:                                               ; preds = %13, %10
  %17 = load ptr, ptr %2, align 8
  ret ptr %17
}

; Function Attrs: inlinehint nounwind uwtable
define internal i64 @lean_array_size(ptr noundef %0) #0 {
  %2 = alloca ptr, align 8
  store ptr %0, ptr %2, align 8, !tbaa !4
  %3 = load ptr, ptr %2, align 8, !tbaa !4
  %4 = call ptr @lean_to_array(ptr noundef %3)
  %5 = getelementptr inbounds nuw %struct.lean_array_object, ptr %4, i32 0, i32 1
  %6 = load i64, ptr %5, align 8, !tbaa !8
  ret i64 %6
}

; Function Attrs: inlinehint nounwind uwtable
define internal ptr @lean_box(i64 noundef %0) #0 {
  %2 = alloca i64, align 8
  store i64 %0, ptr %2, align 8, !tbaa !8
  %3 = load i64, ptr %2, align 8, !tbaa !8
  %4 = shl i64 %3, 1
  %5 = or i64 %4, 1
  %6 = inttoptr i64 %5 to ptr
  ret ptr %6
}

; Function Attrs: alwaysinline nounwind uwtable
define internal void @lean_dec(ptr noundef %0) #1 {
  %2 = alloca ptr, align 8
  store ptr %0, ptr %2, align 8, !tbaa !4
  %3 = load ptr, ptr %2, align 8, !tbaa !4
  %4 = call zeroext i1 @lean_is_scalar(ptr noundef %3)
  br i1 %4, label %7, label %5

5:                                                ; preds = %1
  %6 = load ptr, ptr %2, align 8, !tbaa !4
  call void @lean_dec_ref(ptr noundef %6)
  br label %7

7:                                                ; preds = %5, %1
  ret void
}

; Function Attrs: alwaysinline nounwind uwtable
define internal ptr @lean_nat_mul(ptr noundef %0, ptr noundef %1) #1 {
  %3 = alloca ptr, align 8
  %4 = alloca ptr, align 8
  %5 = alloca ptr, align 8
  %6 = alloca i64, align 8
  %7 = alloca i32, align 4
  %8 = alloca i64, align 8
  %9 = alloca i64, align 8
  store ptr %0, ptr %4, align 8, !tbaa !4
  store ptr %1, ptr %5, align 8, !tbaa !4
  %10 = load ptr, ptr %4, align 8, !tbaa !4
  %11 = call zeroext i1 @lean_is_scalar(ptr noundef %10)
  br i1 %11, label %12, label %15

12:                                               ; preds = %2
  %13 = load ptr, ptr %5, align 8, !tbaa !4
  %14 = call zeroext i1 @lean_is_scalar(ptr noundef %13)
  br label %15

15:                                               ; preds = %12, %2
  %16 = phi i1 [ false, %2 ], [ %14, %12 ]
  %17 = zext i1 %16 to i32
  %18 = sext i32 %17 to i64
  %19 = call i64 @llvm.expect.i64(i64 %18, i64 1)
  %20 = icmp ne i64 %19, 0
  br i1 %20, label %21, label %51

21:                                               ; preds = %15
  call void @llvm.lifetime.start.p0(i64 8, ptr %6) #8
  %22 = load ptr, ptr %4, align 8, !tbaa !4
  %23 = call i64 @lean_unbox(ptr noundef %22)
  store i64 %23, ptr %6, align 8, !tbaa !8
  %24 = load i64, ptr %6, align 8, !tbaa !8
  %25 = icmp eq i64 %24, 0
  br i1 %25, label %26, label %28

26:                                               ; preds = %21
  %27 = load ptr, ptr %4, align 8, !tbaa !4
  store ptr %27, ptr %3, align 8
  store i32 1, ptr %7, align 4
  br label %50

28:                                               ; preds = %21
  call void @llvm.lifetime.start.p0(i64 8, ptr %8) #8
  %29 = load ptr, ptr %5, align 8, !tbaa !4
  %30 = call i64 @lean_unbox(ptr noundef %29)
  store i64 %30, ptr %8, align 8, !tbaa !8
  call void @llvm.lifetime.start.p0(i64 8, ptr %9) #8
  %31 = load i64, ptr %6, align 8, !tbaa !8
  %32 = load i64, ptr %8, align 8, !tbaa !8
  %33 = mul i64 %31, %32
  store i64 %33, ptr %9, align 8, !tbaa !8
  %34 = load i64, ptr %9, align 8, !tbaa !8
  %35 = icmp ule i64 %34, 9223372036854775807
  br i1 %35, label %36, label %45

36:                                               ; preds = %28
  %37 = load i64, ptr %9, align 8, !tbaa !8
  %38 = load i64, ptr %6, align 8, !tbaa !8
  %39 = udiv i64 %37, %38
  %40 = load i64, ptr %8, align 8, !tbaa !8
  %41 = icmp eq i64 %39, %40
  br i1 %41, label %42, label %45

42:                                               ; preds = %36
  %43 = load i64, ptr %9, align 8, !tbaa !8
  %44 = call ptr @lean_box(i64 noundef %43)
  store ptr %44, ptr %3, align 8
  store i32 1, ptr %7, align 4
  br label %49

45:                                               ; preds = %36, %28
  %46 = load i64, ptr %6, align 8, !tbaa !8
  %47 = load i64, ptr %8, align 8, !tbaa !8
  %48 = call ptr @lean_nat_overflow_mul(i64 noundef %46, i64 noundef %47)
  store ptr %48, ptr %3, align 8
  store i32 1, ptr %7, align 4
  br label %49

49:                                               ; preds = %45, %42
  call void @llvm.lifetime.end.p0(i64 8, ptr %9) #8
  call void @llvm.lifetime.end.p0(i64 8, ptr %8) #8
  br label %50

50:                                               ; preds = %49, %26
  call void @llvm.lifetime.end.p0(i64 8, ptr %6) #8
  br label %55

51:                                               ; preds = %15
  %52 = load ptr, ptr %4, align 8, !tbaa !4
  %53 = load ptr, ptr %5, align 8, !tbaa !4
  %54 = call ptr @lean_nat_big_mul(ptr noundef %52, ptr noundef %53)
  store ptr %54, ptr %3, align 8
  br label %55

55:                                               ; preds = %51, %50
  %56 = load ptr, ptr %3, align 8
  ret ptr %56
}

; Function Attrs: inlinehint nounwind uwtable
define internal ptr @lean_unsigned_to_nat(i32 noundef %0) #0 {
  %2 = alloca i32, align 4
  store i32 %0, ptr %2, align 4, !tbaa !10
  %3 = load i32, ptr %2, align 4, !tbaa !10
  %4 = zext i32 %3 to i64
  %5 = call ptr @lean_usize_to_nat(i64 noundef %4)
  ret ptr %5
}

; Function Attrs: inlinehint nounwind uwtable
define internal ptr @lean_array_get_size(ptr noundef %0) #0 {
  %2 = alloca ptr, align 8
  store ptr %0, ptr %2, align 8, !tbaa !4
  %3 = load ptr, ptr %2, align 8, !tbaa !4
  %4 = call i64 @lean_array_size(ptr noundef %3)
  %5 = call ptr @lean_box(i64 noundef %4)
  ret ptr %5
}

; Function Attrs: nounwind uwtable
define ptr @l_Std_DHashMap_Internal_Raw_u2080_expand___at_Lean_Elab_Tactic_GuardMsgs_elabGuardMsgs___spec__30(ptr noundef %0, ptr noundef %1, ptr noundef %2) #2 {
  %4 = alloca ptr, align 8
  %5 = alloca ptr, align 8
  %6 = alloca ptr, align 8
  %7 = alloca ptr, align 8
  %8 = alloca ptr, align 8
  %9 = alloca ptr, align 8
  %10 = alloca ptr, align 8
  %11 = alloca ptr, align 8
  %12 = alloca ptr, align 8
  %13 = alloca ptr, align 8
  store ptr %0, ptr %4, align 8, !tbaa !4
  store ptr %1, ptr %5, align 8, !tbaa !4
  store ptr %2, ptr %6, align 8, !tbaa !4
  br label %14

14:                                               ; preds = %3
  call void @llvm.lifetime.start.p0(i64 8, ptr %7) #8
  call void @llvm.lifetime.start.p0(i64 8, ptr %8) #8
  call void @llvm.lifetime.start.p0(i64 8, ptr %9) #8
  call void @llvm.lifetime.start.p0(i64 8, ptr %10) #8
  call void @llvm.lifetime.start.p0(i64 8, ptr %11) #8
  call void @llvm.lifetime.start.p0(i64 8, ptr %12) #8
  call void @llvm.lifetime.start.p0(i64 8, ptr %13) #8
  %15 = load ptr, ptr %6, align 8, !tbaa !4
  %16 = call ptr @lean_array_get_size(ptr noundef %15)
  store ptr %16, ptr %7, align 8, !tbaa !4
  %17 = call ptr @lean_unsigned_to_nat(i32 noundef 2)
  store ptr %17, ptr %8, align 8, !tbaa !4
  %18 = load ptr, ptr %7, align 8, !tbaa !4
  %19 = load ptr, ptr %8, align 8, !tbaa !4
  %20 = call ptr @lean_nat_mul(ptr noundef %18, ptr noundef %19)
  store ptr %20, ptr %9, align 8, !tbaa !4
  %21 = load ptr, ptr %7, align 8, !tbaa !4
  call void @lean_dec(ptr noundef %21)
  %22 = call ptr @lean_box(i64 noundef 0)
  store ptr %22, ptr %10, align 8, !tbaa !4
  %23 = load ptr, ptr %9, align 8, !tbaa !4
  %24 = load ptr, ptr %10, align 8, !tbaa !4
  %25 = call ptr @lean_mk_array(ptr noundef %23, ptr noundef %24)
  store ptr %25, ptr %11, align 8, !tbaa !4
  %26 = call ptr @lean_unsigned_to_nat(i32 noundef 0)
  store ptr %26, ptr %12, align 8, !tbaa !4
  %27 = load ptr, ptr %4, align 8, !tbaa !4
  %28 = load ptr, ptr %5, align 8, !tbaa !4
  %29 = load ptr, ptr %12, align 8, !tbaa !4
  %30 = load ptr, ptr %6, align 8, !tbaa !4
  %31 = load ptr, ptr %11, align 8, !tbaa !4
  %32 = call ptr @l_Std_DHashMap_Internal_Raw_u2080_expand_go___at_Lean_Elab_Tactic_GuardMsgs_elabGuardMsgs___spec__31(ptr noundef %27, ptr noundef %28, ptr noundef %29, ptr noundef %30, ptr noundef %31)
  store ptr %32, ptr %13, align 8, !tbaa !4
  %33 = load ptr, ptr %13, align 8, !tbaa !4
  call void @llvm.lifetime.end.p0(i64 8, ptr %13) #8
  call void @llvm.lifetime.end.p0(i64 8, ptr %12) #8
  call void @llvm.lifetime.end.p0(i64 8, ptr %11) #8
  call void @llvm.lifetime.end.p0(i64 8, ptr %10) #8
  call void @llvm.lifetime.end.p0(i64 8, ptr %9) #8
  call void @llvm.lifetime.end.p0(i64 8, ptr %8) #8
  call void @llvm.lifetime.end.p0(i64 8, ptr %7) #8
  ret ptr %33
}